target datalayout = "e-m:e-p270:32:32-p271:32:32-p272:64:64-i64:64-i128:128-f80:128-n8:16:32:64-S128"
target triple = "x86_64-pc-linux-gnu"

%"struct.std::_List_iterator" = type { ptr }
%"struct.std::_List_const_iterator" = type { ptr }
%"class.std::__cxx11::_List_base.68" = type { %"struct.std::__cxx11::_List_base<glslang::TAttributeArgs, glslang::pool_allocator<glslang::TAttributeArgs>>::_List_impl" }
%"struct.std::__cxx11::_List_base<glslang::TAttributeArgs, glslang::pool_allocator<glslang::TAttributeArgs>>::_List_impl" = type { %"class.glslang::pool_allocator.69", %"struct.std::__detail::_List_node_header" }
%"class.glslang::pool_allocator.69" = type { ptr }
%"struct.std::__detail::_List_node_header" = type { %"struct.std::__detail::_List_node_base", i64 }
%"struct.std::__detail::_List_node_base" = type { ptr, ptr }

; Function Attrs: mustprogress nounwind uwtable
define linkonce_odr noundef nonnull align 8 dereferenceable(96) ptr @_ZNK7glslang14pool_allocatorISt10_List_nodeINS_14TAttributeArgsEEE12getAllocatorEv(ptr noundef nonnull align 8 dereferenceable(8) %0) #0 comdat align 2 {
  %2 = alloca ptr, align 8
  store ptr %0, ptr %2, align 8
  %3 = load ptr, ptr %2, align 8
  %4 = getelementptr inbounds %"class.glslang::pool_allocator.69", ptr %3, i32 0, i32 0
  %5 = load ptr, ptr %4, align 8
  ret ptr %5
}

; Function Attrs: mustprogress nounwind uwtable
define linkonce_odr noundef zeroext i1 @_ZNK7glslang14pool_allocatorISt10_List_nodeINS_14TAttributeArgsEEEneERKS4_(ptr noundef nonnull align 8 dereferenceable(8) %0, ptr noundef nonnull align 8 dereferenceable(8) %1) #0 comdat align 2 {
  %3 = alloca ptr, align 8
  %4 = alloca ptr, align 8
  store ptr %0, ptr %3, align 8
  store ptr %1, ptr %4, align 8
  %5 = load ptr, ptr %3, align 8
  %6 = call noundef nonnull align 8 dereferenceable(96) ptr @_ZNK7glslang14pool_allocatorISt10_List_nodeINS_14TAttributeArgsEEE12getAllocatorEv(ptr noundef nonnull align 8 dereferenceable(8) %5)
  %7 = load ptr, ptr %4, align 8
  %8 = call noundef nonnull align 8 dereferenceable(96) ptr @_ZNK7glslang14pool_allocatorISt10_List_nodeINS_14TAttributeArgsEEE12getAllocatorEv(ptr noundef nonnull align 8 dereferenceable(8) %7)
  %9 = icmp ne ptr %6, %8
  ret i1 %9
}

; Function Attrs: mustprogress nounwind uwtable
define linkonce_odr noundef zeroext i1 @_ZNSt11__alloc_neqIN7glslang14pool_allocatorISt10_List_nodeINS0_14TAttributeArgsEEEELb0EE8_S_do_itERKS5_S8_(ptr noundef nonnull align 8 dereferenceable(8) %0, ptr noundef nonnull align 8 dereferenceable(8) %1) #0 comdat align 2 {
  %3 = alloca ptr, align 8
  %4 = alloca ptr, align 8
  store ptr %0, ptr %3, align 8
  store ptr %1, ptr %4, align 8
  %5 = load ptr, ptr %3, align 8
  %6 = load ptr, ptr %4, align 8
  %7 = call noundef zeroext i1 @_ZNK7glslang14pool_allocatorISt10_List_nodeINS_14TAttributeArgsEEEneERKS4_(ptr noundef nonnull align 8 dereferenceable(8) %5, ptr noundef nonnull align 8 dereferenceable(8) %6)
  ret i1 %7
}

; Function Attrs: mustprogress nounwind uwtable
define linkonce_odr noundef nonnull align 8 dereferenceable(8) ptr @_ZNSt7__cxx1110_List_baseIN7glslang14TAttributeArgsENS1_14pool_allocatorIS2_EEE21_M_get_Node_allocatorEv(ptr noundef nonnull align 8 dereferenceable(32) %0) #0 comdat align 2 {
  %2 = alloca ptr, align 8
  store ptr %0, ptr %2, align 8
  %3 = load ptr, ptr %2, align 8
  %4 = getelementptr inbounds %"class.std::__cxx11::_List_base.68", ptr %3, i32 0, i32 0
  ret ptr %4
}

; Function Attrs: mustprogress nounwind uwtable
define linkonce_odr void @_ZNSt7__cxx1110_List_baseIN7glslang14TAttributeArgsENS1_14pool_allocatorIS2_EEE11_M_set_sizeEm(ptr noundef nonnull align 8 dereferenceable(32) %0, i64 noundef %1) #0 comdat align 2 {
  %3 = alloca ptr, align 8
  %4 = alloca i64, align 8
  store ptr %0, ptr %3, align 8
  store i64 %1, ptr %4, align 8
  %5 = load ptr, ptr %3, align 8
  %6 = load i64, ptr %4, align 8
  %7 = getelementptr inbounds %"class.std::__cxx11::_List_base.68", ptr %5, i32 0, i32 0
  %8 = getelementptr inbounds %"struct.std::__cxx11::_List_base<glslang::TAttributeArgs, glslang::pool_allocator<glslang::TAttributeArgs>>::_List_impl", ptr %7, i32 0, i32 1
  %9 = getelementptr inbounds %"struct.std::__detail::_List_node_header", ptr %8, i32 0, i32 1
  store i64 %6, ptr %9, align 8
  ret void
}

; Function Attrs: mustprogress nounwind uwtable
define linkonce_odr void @_ZNSt7__cxx1110_List_baseIN7glslang14TAttributeArgsENS1_14pool_allocatorIS2_EEE11_M_inc_sizeEm(ptr noundef nonnull align 8 dereferenceable(32) %0, i64 noundef %1) #0 comdat align 2 {
  %3 = alloca ptr, align 8
  %4 = alloca i64, align 8
  store ptr %0, ptr %3, align 8
  store i64 %1, ptr %4, align 8
  %5 = load ptr, ptr %3, align 8
  %6 = load i64, ptr %4, align 8
  %7 = getelementptr inbounds %"class.std::__cxx11::_List_base.68", ptr %5, i32 0, i32 0
  %8 = getelementptr inbounds %"struct.std::__cxx11::_List_base<glslang::TAttributeArgs, glslang::pool_allocator<glslang::TAttributeArgs>>::_List_impl", ptr %7, i32 0, i32 1
  %9 = getelementptr inbounds %"struct.std::__detail::_List_node_header", ptr %8, i32 0, i32 1
  %10 = load i64, ptr %9, align 8
  %11 = add i64 %10, %6
  store i64 %11, ptr %9, align 8
  ret void
}

; Function Attrs: mustprogress nounwind uwtable
define linkonce_odr noundef i64 @_ZNKSt7__cxx1110_List_baseIN7glslang14TAttributeArgsENS1_14pool_allocatorIS2_EEE11_M_get_sizeEv(ptr noundef nonnull align 8 dereferenceable(32) %0) #0 comdat align 2 {
  %2 = alloca ptr, align 8
  store ptr %0, ptr %2, align 8
  %3 = load ptr, ptr %2, align 8
  %4 = getelementptr inbounds %"class.std::__cxx11::_List_base.68", ptr %3, i32 0, i32 0
  %5 = getelementptr inbounds %"struct.std::__cxx11::_List_base<glslang::TAttributeArgs, glslang::pool_allocator<glslang::TAttributeArgs>>::_List_impl", ptr %4, i32 0, i32 1
  %6 = getelementptr inbounds %"struct.std::__detail::_List_node_header", ptr %5, i32 0, i32 1
  %7 = load i64, ptr %6, align 8
  ret i64 %7
}

; Function Attrs: mustprogress nounwind uwtable
define linkonce_odr void @_ZNSt7__cxx114listIN7glslang14TAttributeArgsENS1_14pool_allocatorIS2_EEE11_M_transferESt14_List_iteratorIS2_ES7_S7_(ptr noundef nonnull align 8 dereferenceable(32) %0, ptr %1, ptr %2, ptr %3) #0 comdat align 2 {
  %5 = alloca %"struct.std::_List_iterator", align 8
  %6 = alloca %"struct.std::_List_iterator", align 8
  %7 = alloca %"struct.std::_List_iterator", align 8
  %8 = alloca ptr, align 8
  %9 = getelementptr inbounds %"struct.std::_List_iterator", ptr %5, i32 0, i32 0
  store ptr %1, ptr %9, align 8
  %10 = getelementptr inbounds %"struct.std::_List_iterator", ptr %6, i32 0, i32 0
  store ptr %2, ptr %10, align 8
  %11 = getelementptr inbounds %"struct.std::_List_iterator", ptr %7, i32 0, i32 0
  store ptr %3, ptr %11, align 8
  store ptr %0, ptr %8, align 8
  %12 = getelementptr inbounds %"struct.std::_List_iterator", ptr %5, i32 0, i32 0
  %13 = load ptr, ptr %12, align 8
  %14 = getelementptr inbounds %"struct.std::_List_iterator", ptr %6, i32 0, i32 0
  %15 = load ptr, ptr %14, align 8
  %16 = getelementptr inbounds %"struct.std::_List_iterator", ptr %7, i32 0, i32 0
  %17 = load ptr, ptr %16, align 8
  call void @_ZNSt8__detail15_List_node_base11_M_transferEPS0_S1_(ptr noundef nonnull align 8 dereferenceable(16) %13, ptr noundef %15, ptr noundef %17) #7
  ret void
}

; Function Attrs: mustprogress nounwind uwtable
define linkonce_odr ptr @_ZNSt7__cxx114listIN7glslang14TAttributeArgsENS1_14pool_allocatorIS2_EEE5beginEv(ptr noundef nonnull align 8 dereferenceable(32) %0) #0 comdat align 2 {
  %2 = alloca %"struct.std::_List_iterator", align 8
  %3 = alloca ptr, align 8
  store ptr %0, ptr %3, align 8
  %4 = load ptr, ptr %3, align 8
  %5 = getelementptr inbounds %"class.std::__cxx11::_List_base.68", ptr %4, i32 0, i32 0
  %6 = getelementptr inbounds %"struct.std::__cxx11::_List_base<glslang::TAttributeArgs, glslang::pool_allocator<glslang::TAttributeArgs>>::_List_impl", ptr %5, i32 0, i32 1
  %7 = getelementptr inbounds %"struct.std::__detail::_List_node_base", ptr %6, i32 0, i32 0
  %8 = load ptr, ptr %7, align 8
  call void @_ZNSt14_List_iteratorIN7glslang14TAttributeArgsEEC2EPNSt8__detail15_List_node_baseE(ptr noundef nonnull align 8 dereferenceable(8) %2, ptr noundef %8) #7
  %9 = getelementptr inbounds %"struct.std::_List_iterator", ptr %2, i32 0, i32 0
  %10 = load ptr, ptr %9, align 8
  ret ptr %10
}

; Function Attrs: mustprogress nounwind uwtable
define linkonce_odr ptr @_ZNKSt20_List_const_iteratorIN7glslang14TAttributeArgsEE13_M_const_castEv(ptr noundef nonnull align 8 dereferenceable(8) %0) #0 comdat align 2 {
  %2 = alloca %"struct.std::_List_iterator", align 8
  %3 = alloca ptr, align 8
  store ptr %0, ptr %3, align 8
  %4 = load ptr, ptr %3, align 8
  %5 = getelementptr inbounds %"struct.std::_List_const_iterator", ptr %4, i32 0, i32 0
  %6 = load ptr, ptr %5, align 8
  call void @_ZNSt14_List_iteratorIN7glslang14TAttributeArgsEEC2EPNSt8__detail15_List_node_baseE(ptr noundef nonnull align 8 dereferenceable(8) %2, ptr noundef %6) #7
  %7 = getelementptr inbounds %"struct.std::_List_iterator", ptr %2, i32 0, i32 0
  %8 = load ptr, ptr %7, align 8
  ret ptr %8
}

; Function Attrs: mustprogress nounwind uwtable
define linkonce_odr void @_ZNSt7__cxx114listIN7glslang14TAttributeArgsENS1_14pool_allocatorIS2_EEE25_M_check_equal_allocatorsERS5_(ptr noundef nonnull align 8 dereferenceable(32) %0, ptr noundef nonnull align 8 dereferenceable(32) %1) #0 comdat align 2 {
  %3 = alloca ptr, align 8
  %4 = alloca ptr, align 8
  store ptr %0, ptr %3, align 8
  store ptr %1, ptr %4, align 8
  %5 = load ptr, ptr %3, align 8
  %6 = call noundef nonnull align 8 dereferenceable(8) ptr @_ZNSt7__cxx1110_List_baseIN7glslang14TAttributeArgsENS1_14pool_allocatorIS2_EEE21_M_get_Node_allocatorEv(ptr noundef nonnull align 8 dereferenceable(32) %5) #7
  %7 = load ptr, ptr %4, align 8
  %8 = call noundef nonnull align 8 dereferenceable(8) ptr @_ZNSt7__cxx1110_List_baseIN7glslang14TAttributeArgsENS1_14pool_allocatorIS2_EEE21_M_get_Node_allocatorEv(ptr noundef nonnull align 8 dereferenceable(32) %7) #7
  %9 = call noundef zeroext i1 @_ZNSt11__alloc_neqIN7glslang14pool_allocatorISt10_List_nodeINS0_14TAttributeArgsEEEELb0EE8_S_do_itERKS5_S8_(ptr noundef nonnull align 8 dereferenceable(8) %6, ptr noundef nonnull align 8 dereferenceable(8) %8)
  br i1 %9, label %10, label %11

10:                                               ; preds = %2
  call void @abort() #9
  unreachable

11:                                               ; preds = %2
  ret void
}

; Function Attrs: mustprogress nounwind uwtable
define linkonce_odr noundef zeroext i1 @_ZNKSt7__cxx114listIN7glslang14TAttributeArgsENS1_14pool_allocatorIS2_EEE5emptyEv(ptr noundef nonnull align 8 dereferenceable(32) %0) #0 comdat align 2 {
  %2 = alloca ptr, align 8
  store ptr %0, ptr %2, align 8
  %3 = load ptr, ptr %2, align 8
  %4 = getelementptr inbounds %"class.std::__cxx11::_List_base.68", ptr %3, i32 0, i32 0
  %5 = getelementptr inbounds %"struct.std::__cxx11::_List_base<glslang::TAttributeArgs, glslang::pool_allocator<glslang::TAttributeArgs>>::_List_impl", ptr %4, i32 0, i32 1
  %6 = getelementptr inbounds %"struct.std::__detail::_List_node_base", ptr %5, i32 0, i32 0
  %7 = load ptr, ptr %6, align 8
  %8 = getelementptr inbounds %"class.std::__cxx11::_List_base.68", ptr %3, i32 0, i32 0
  %9 = getelementptr inbounds %"struct.std::__cxx11::_List_base<glslang::TAttributeArgs, glslang::pool_allocator<glslang::TAttributeArgs>>::_List_impl", ptr %8, i32 0, i32 1
  %10 = icmp eq ptr %7, %9
  ret i1 %10
}

; Function Attrs: mustprogress nounwind uwtable
define linkonce_odr void @_ZNSt7__cxx114listIN7glslang14TAttributeArgsENS1_14pool_allocatorIS2_EEE6spliceESt20_List_const_iteratorIS2_EOS5_(ptr noundef nonnull align 8 dereferenceable(32) %0, ptr %1, ptr noundef nonnull align 8 dereferenceable(32) %2) #0 comdat align 2 {
  %4 = alloca %"struct.std::_List_const_iterator", align 8
  %5 = alloca ptr, align 8
  %6 = alloca ptr, align 8
  %7 = alloca %"struct.std::_List_iterator", align 8
  %8 = alloca %"struct.std::_List_iterator", align 8
  %9 = alloca %"struct.std::_List_iterator", align 8
  %10 = getelementptr inbounds %"struct.std::_List_const_iterator", ptr %4, i32 0, i32 0
  store ptr %1, ptr %10, align 8
  store ptr %0, ptr %5, align 8
  store ptr %2, ptr %6, align 8
  %11 = load ptr, ptr %5, align 8
  %12 = load ptr, ptr %6, align 8
  %13 = call noundef zeroext i1 @_ZNKSt7__cxx114listIN7glslang14TAttributeArgsENS1_14pool_allocatorIS2_EEE5emptyEv(ptr noundef nonnull align 8 dereferenceable(32) %12) #7
  br i1 %13, label %33, label %14

14:                                               ; preds = %3
  %15 = load ptr, ptr %6, align 8
  call void @_ZNSt7__cxx114listIN7glslang14TAttributeArgsENS1_14pool_allocatorIS2_EEE25_M_check_equal_allocatorsERS5_(ptr noundef nonnull align 8 dereferenceable(32) %11, ptr noundef nonnull align 8 dereferenceable(32) %15) #7
  %16 = call ptr @_ZNKSt20_List_const_iteratorIN7glslang14TAttributeArgsEE13_M_const_castEv(ptr noundef nonnull align 8 dereferenceable(8) %4) #7
  %17 = getelementptr inbounds %"struct.std::_List_iterator", ptr %7, i32 0, i32 0
  store ptr %16, ptr %17, align 8
  %18 = load ptr, ptr %6, align 8
  %19 = call ptr @_ZNSt7__cxx114listIN7glslang14TAttributeArgsENS1_14pool_allocatorIS2_EEE5beginEv(ptr noundef nonnull align 8 dereferenceable(32) %18) #7
  %20 = getelementptr inbounds %"struct.std::_List_iterator", ptr %8, i32 0, i32 0
  store ptr %19, ptr %20, align 8
  %21 = load ptr, ptr %6, align 8
  %22 = call ptr @_ZNSt7__cxx114listIN7glslang14TAttributeArgsENS1_14pool_allocatorIS2_EEE3endEv(ptr noundef nonnull align 8 dereferenceable(32) %21) #7
  %23 = getelementptr inbounds %"struct.std::_List_iterator", ptr %9, i32 0, i32 0
  store ptr %22, ptr %23, align 8
  %24 = getelementptr inbounds %"struct.std::_List_iterator", ptr %7, i32 0, i32 0
  %25 = load ptr, ptr %24, align 8
  %26 = getelementptr inbounds %"struct.std::_List_iterator", ptr %8, i32 0, i32 0
  %27 = load ptr, ptr %26, align 8
  %28 = getelementptr inbounds %"struct.std::_List_iterator", ptr %9, i32 0, i32 0
  %29 = load ptr, ptr %28, align 8
  call void @_ZNSt7__cxx114listIN7glslang14TAttributeArgsENS1_14pool_allocatorIS2_EEE11_M_transferESt14_List_iteratorIS2_ES7_S7_(ptr noundef nonnull align 8 dereferenceable(32) %11, ptr %25, ptr %27, ptr %29)
  %30 = load ptr, ptr %6, align 8
  %31 = call noundef i64 @_ZNKSt7__cxx1110_List_baseIN7glslang14TAttributeArgsENS1_14pool_allocatorIS2_EEE11_M_get_sizeEv(ptr noundef nonnull align 8 dereferenceable(32) %30)
  call void @_ZNSt7__cxx1110_List_baseIN7glslang14TAttributeArgsENS1_14pool_allocatorIS2_EEE11_M_inc_sizeEm(ptr noundef nonnull align 8 dereferenceable(32) %11, i64 noundef %31)
  %32 = load ptr, ptr %6, align 8
  call void @_ZNSt7__cxx1110_List_baseIN7glslang14TAttributeArgsENS1_14pool_allocatorIS2_EEE11_M_set_sizeEm(ptr noundef nonnull align 8 dereferenceable(32) %32, i64 noundef 0)
  br label %33

33:                                               ; preds = %14, %3
  ret void
}

; Function Attrs: mustprogress nounwind uwtable
define linkonce_odr void @_ZNSt14_List_iteratorIN7glslang14TAttributeArgsEEC2EPNSt8__detail15_List_node_baseE(ptr noundef nonnull align 8 dereferenceable(8) %0, ptr noundef %1) unnamed_addr #0 comdat align 2 {
  %3 = alloca ptr, align 8
  %4 = alloca ptr, align 8
  store ptr %0, ptr %3, align 8
  store ptr %1, ptr %4, align 8
  %5 = load ptr, ptr %3, align 8
  %6 = getelementptr inbounds %"struct.std::_List_iterator", ptr %5, i32 0, i32 0
  %7 = load ptr, ptr %4, align 8
  store ptr %7, ptr %6, align 8
  ret void
}

; Function Attrs: mustprogress nounwind uwtable
define linkonce_odr void @_ZNSt7__cxx114listIN7glslang14TAttributeArgsENS1_14pool_allocatorIS2_EEE6spliceESt20_List_const_iteratorIS2_ERS5_(ptr noundef nonnull align 8 dereferenceable(32) %0, ptr %1, ptr noundef nonnull align 8 dereferenceable(32) %2) #0 comdat align 2 {
  %4 = alloca %"struct.std::_List_const_iterator", align 8
  %5 = alloca ptr, align 8
  %6 = alloca ptr, align 8
  %7 = alloca %"struct.std::_List_const_iterator", align 8
  %8 = getelementptr inbounds %"struct.std::_List_const_iterator", ptr %4, i32 0, i32 0
  store ptr %1, ptr %8, align 8
  store ptr %0, ptr %5, align 8
  store ptr %2, ptr %6, align 8
  %9 = load ptr, ptr %5, align 8
  call void @llvm.memcpy.p0.p0.i64(ptr align 8 %7, ptr align 8 %4, i64 8, i1 false)
  %10 = load ptr, ptr %6, align 8
  %11 = getelementptr inbounds %"struct.std::_List_const_iterator", ptr %7, i32 0, i32 0
  %12 = load ptr, ptr %11, align 8
  call void @_ZNSt7__cxx114listIN7glslang14TAttributeArgsENS1_14pool_allocatorIS2_EEE6spliceESt20_List_const_iteratorIS2_EOS5_(ptr noundef nonnull align 8 dereferenceable(32) %9, ptr %12, ptr noundef nonnull align 8 dereferenceable(32) %10) #7
  ret void
}

; Function Attrs: mustprogress nounwind uwtable
define linkonce_odr void @_ZNSt20_List_const_iteratorIN7glslang14TAttributeArgsEEC2ERKSt14_List_iteratorIS1_E(ptr noundef nonnull align 8 dereferenceable(8) %0, ptr noundef nonnull align 8 dereferenceable(8) %1) unnamed_addr #0 comdat align 2 {
  %3 = alloca ptr, align 8
  %4 = alloca ptr, align 8
  store ptr %0, ptr %3, align 8
  store ptr %1, ptr %4, align 8
  %5 = load ptr, ptr %3, align 8
  %6 = getelementptr inbounds %"struct.std::_List_const_iterator", ptr %5, i32 0, i32 0
  %7 = load ptr, ptr %4, align 8
  %8 = getelementptr inbounds %"struct.std::_List_iterator", ptr %7, i32 0, i32 0
  %9 = load ptr, ptr %8, align 8
  store ptr %9, ptr %6, align 8
  ret void
}

; Function Attrs: mustprogress nounwind uwtable
define linkonce_odr ptr @_ZNSt7__cxx114listIN7glslang14TAttributeArgsENS1_14pool_allocatorIS2_EEE3endEv(ptr noundef nonnull align 8 dereferenceable(32) %0) #0 comdat align 2 {
  %2 = alloca %"struct.std::_List_iterator", align 8
  %3 = alloca ptr, align 8
  store ptr %0, ptr %3, align 8
  %4 = load ptr, ptr %3, align 8
  %5 = getelementptr inbounds %"class.std::__cxx11::_List_base.68", ptr %4, i32 0, i32 0
  %6 = getelementptr inbounds %"struct.std::__cxx11::_List_base<glslang::TAttributeArgs, glslang::pool_allocator<glslang::TAttributeArgs>>::_List_impl", ptr %5, i32 0, i32 1
  call void @_ZNSt14_List_iteratorIN7glslang14TAttributeArgsEEC2EPNSt8__detail15_List_node_baseE(ptr noundef nonnull align 8 dereferenceable(8) %2, ptr noundef %6) #7
  %7 = getelementptr inbounds %"struct.std::_List_iterator", ptr %2, i32 0, i32 0
  %8 = load ptr, ptr %7, align 8
  ret ptr %8
}

; Function Attrs: mustprogress nounwind uwtable
define noundef ptr @_ZNK7glslang13TParseContext15mergeAttributesEPNS_5TListINS_14TAttributeArgsEEES4_(ptr noundef nonnull align 8 dereferenceable(30232) %0, ptr noundef %1, ptr noundef %2) #0 align 2 {
  %4 = alloca ptr, align 8
  %5 = alloca ptr, align 8
  %6 = alloca ptr, align 8
  %7 = alloca %"struct.std::_List_const_iterator", align 8
  %8 = alloca %"struct.std::_List_iterator", align 8
  store ptr %0, ptr %4, align 8
  store ptr %1, ptr %5, align 8
  store ptr %2, ptr %6, align 8
  %9 = load ptr, ptr %5, align 8
  %10 = load ptr, ptr %5, align 8
  %11 = call ptr @_ZNSt7__cxx114listIN7glslang14TAttributeArgsENS1_14pool_allocatorIS2_EEE3endEv(ptr noundef nonnull align 8 dereferenceable(32) %10) #7
  %12 = getelementptr inbounds %"struct.std::_List_iterator", ptr %8, i32 0, i32 0
  store ptr %11, ptr %12, align 8
  call void @_ZNSt20_List_const_iteratorIN7glslang14TAttributeArgsEEC2ERKSt14_List_iteratorIS1_E(ptr noundef nonnull align 8 dereferenceable(8) %7, ptr noundef nonnull align 8 dereferenceable(8) %8) #7
  %13 = load ptr, ptr %6, align 8
  %14 = getelementptr inbounds %"struct.std::_List_const_iterator", ptr %7, i32 0, i32 0
  %15 = load ptr, ptr %14, align 8
  call void @_ZNSt7__cxx114listIN7glslang14TAttributeArgsENS1_14pool_allocatorIS2_EEE6spliceESt20_List_const_iteratorIS2_ERS5_(ptr noundef nonnull align 8 dereferenceable(32) %9, ptr %15, ptr noundef nonnull align 8 dereferenceable(32) %13) #7
  %16 = load ptr, ptr %5, align 8
  ret ptr %16
}