; Function Attrs: mustprogress nounwind uwtable
define noundef ptr @_ZNK7glslang13TParseContext15mergeAttributesEPNS_5TListINS_14TAttributeArgsEEES4_(ptr nocapture noundef nonnull readnone align 8 dereferenceable(30232) %0, ptr noundef returned %1, ptr noundef %2) local_unnamed_addr #0 align 2 {
  %4 = getelementptr inbounds i8, ptr %1, i64 8
  %5 = getelementptr inbounds i8, ptr %2, i64 8
  %6 = load ptr, ptr %5, align 8
  %7 = icmp eq ptr %6, %5
  br i1 %7, label %_ZNSt7__cxx114listIN7glslang14TAttributeArgsENS1_14pool_allocatorIS2_EEE6spliceESt20_List_const_iteratorIS2_ERS5_.exit, label %8

8:                                                ; preds = %3
  %9 = load ptr, ptr %1, align 8
  %10 = load ptr, ptr %2, align 8
  %.not.i.i.i = icmp eq ptr %9, %10
  br i1 %.not.i.i.i, label %_ZNSt7__cxx114listIN7glslang14TAttributeArgsENS1_14pool_allocatorIS2_EEE25_M_check_equal_allocatorsERS5_.exit.i.i, label %11

11:                                               ; preds = %8
  tail call void @abort() #12
  unreachable

_ZNSt7__cxx114listIN7glslang14TAttributeArgsENS1_14pool_allocatorIS2_EEE25_M_check_equal_allocatorsERS5_.exit.i.i: ; preds = %8
  tail call void @_ZNSt8__detail15_List_node_base11_M_transferEPS0_S1_(ptr noundef nonnull align 8 dereferenceable(16) %4, ptr noundef %6, ptr noundef nonnull %5) #11
  %12 = getelementptr inbounds i8, ptr %2, i64 24
  %13 = load i64, ptr %12, align 8
  %14 = getelementptr inbounds i8, ptr %1, i64 24
  %15 = load i64, ptr %14, align 8
  %16 = add i64 %15, %13
  store i64 %16, ptr %14, align 8
  store i64 0, ptr %12, align 8
  br label %_ZNSt7__cxx114listIN7glslang14TAttributeArgsENS1_14pool_allocatorIS2_EEE6spliceESt20_List_const_iteratorIS2_ERS5_.exit

_ZNSt7__cxx114listIN7glslang14TAttributeArgsENS1_14pool_allocatorIS2_EEE6spliceESt20_List_const_iteratorIS2_ERS5_.exit: ; preds = %3, %_ZNSt7__cxx114listIN7glslang14TAttributeArgsENS1_14pool_allocatorIS2_EEE25_M_check_equal_allocatorsERS5_.exit.i.i
  ret ptr %1
}